target datalayout = "e-m:e-p270:32:32-p271:32:32-p272:64:64-i64:64-i128:128-f80:128-n8:16:32:64-S128"
target triple = "x86_64-pc-linux-gnu"

%struct.Amap_Gat_t_ = type { ptr, ptr, ptr, ptr, double, ptr, ptr, i32, [0 x %struct.Amap_Pin_t_] }
%struct.Amap_Pin_t_ = type { ptr, i32, double, double, double, double, double, double, double }

@.str.10 = private unnamed_addr constant [6 x i8] c"GATE \00", align 1
@.str.11 = private unnamed_addr constant [6 x i8] c"%12s \00", align 1
@.str.12 = private unnamed_addr constant [10 x i8] c"%10.2f   \00", align 1
@.str.13 = private unnamed_addr constant [8 x i8] c"%s=%s;\0A\00", align 1
@.str.14 = private unnamed_addr constant [31 x i8] c"Truth table is not available.\0A\00", align 1

; Function Attrs: nounwind uwtable
define void @Amap_LibWriteGate(ptr noundef %0, ptr noundef %1, i32 noundef %2) #0 {
  %4 = alloca ptr, align 8
  %5 = alloca ptr, align 8
  %6 = alloca i32, align 4
  %7 = alloca ptr, align 8
  store ptr %0, ptr %4, align 8
  store ptr %1, ptr %5, align 8
  store i32 %2, ptr %6, align 4
  %8 = load ptr, ptr %4, align 8
  %9 = call i32 (ptr, ptr, ...) @fprintf(ptr noundef %8, ptr noundef @.str.10) #10
  %10 = load ptr, ptr %4, align 8
  %11 = load ptr, ptr %5, align 8
  %12 = getelementptr inbounds %struct.Amap_Gat_t_, ptr %11, i32 0, i32 2
  %13 = load ptr, ptr %12, align 8
  %14 = call i32 (ptr, ptr, ...) @fprintf(ptr noundef %10, ptr noundef @.str.11, ptr noundef %13) #10
  %15 = load ptr, ptr %4, align 8
  %16 = load ptr, ptr %5, align 8
  %17 = getelementptr inbounds %struct.Amap_Gat_t_, ptr %16, i32 0, i32 4
  %18 = load double, ptr %17, align 8
  %19 = call i32 (ptr, ptr, ...) @fprintf(ptr noundef %15, ptr noundef @.str.12, double noundef %18) #10
  %20 = load ptr, ptr %4, align 8
  %21 = load ptr, ptr %5, align 8
  %22 = getelementptr inbounds %struct.Amap_Gat_t_, ptr %21, i32 0, i32 3
  %23 = load ptr, ptr %22, align 8
  %24 = load ptr, ptr %5, align 8
  %25 = getelementptr inbounds %struct.Amap_Gat_t_, ptr %24, i32 0, i32 5
  %26 = load ptr, ptr %25, align 8
  %27 = call i32 (ptr, ptr, ...) @fprintf(ptr noundef %20, ptr noundef @.str.13, ptr noundef %23, ptr noundef %26) #10
  %28 = load i32, ptr %6, align 4
  %29 = icmp ne i32 %28, 0
  br i1 %29, label %30, label %46

30:                                               ; preds = %3
  %31 = load ptr, ptr %5, align 8
  %32 = getelementptr inbounds %struct.Amap_Gat_t_, ptr %31, i32 0, i32 6
  %33 = load ptr, ptr %32, align 8
  %34 = icmp eq ptr %33, null
  br i1 %34, label %35, label %37

35:                                               ; preds = %30
  %36 = call i32 (ptr, ...) @printf(ptr noundef @.str.14)
  br label %45

37:                                               ; preds = %30
  %38 = load ptr, ptr %5, align 8
  %39 = getelementptr inbounds %struct.Amap_Gat_t_, ptr %38, i32 0, i32 6
  %40 = load ptr, ptr %39, align 8
  %41 = load ptr, ptr %5, align 8
  %42 = getelementptr inbounds %struct.Amap_Gat_t_, ptr %41, i32 0, i32 7
  %43 = load i32, ptr %42, align 8
  %44 = lshr i32 %43, 24
  call void @Kit_DsdPrintFromTruth(ptr noundef %40, i32 noundef %44)
  br label %45

45:                                               ; preds = %37, %35
  br label %46

46:                                               ; preds = %45, %3
  %47 = load ptr, ptr %5, align 8
  %48 = getelementptr inbounds %struct.Amap_Gat_t_, ptr %47, i32 0, i32 8
  %49 = getelementptr inbounds [0 x %struct.Amap_Pin_t_], ptr %48, i64 0, i64 0
  store ptr %49, ptr %7, align 8
  br label %50

50:                                               ; preds = %65, %46
  %51 = load ptr, ptr %7, align 8
  %52 = load ptr, ptr %5, align 8
  %53 = getelementptr inbounds %struct.Amap_Gat_t_, ptr %52, i32 0, i32 8
  %54 = getelementptr inbounds [0 x %struct.Amap_Pin_t_], ptr %53, i64 0, i64 0
  %55 = load ptr, ptr %5, align 8
  %56 = getelementptr inbounds %struct.Amap_Gat_t_, ptr %55, i32 0, i32 7
  %57 = load i32, ptr %56, align 8
  %58 = lshr i32 %57, 24
  %59 = sext i32 %58 to i64
  %60 = getelementptr inbounds %struct.Amap_Pin_t_, ptr %54, i64 %59
  %61 = icmp ult ptr %51, %60
  br i1 %61, label %62, label %68

62:                                               ; preds = %50
  %63 = load ptr, ptr %4, align 8
  %64 = load ptr, ptr %7, align 8
  call void @Amap_LibWritePin(ptr noundef %63, ptr noundef %64)
  br label %65

65:                                               ; preds = %62
  %66 = load ptr, ptr %7, align 8
  %67 = getelementptr inbounds %struct.Amap_Pin_t_, ptr %66, i32 1
  store ptr %67, ptr %7, align 8
  br label %50, !llvm.loop !7

68:                                               ; preds = %50
  ret void
}