; Function Attrs: nounwind uwtable
define void @Amap_LibWriteGate(ptr noundef captures(none) %0, ptr noundef readonly %1, i32 noundef %2) local_unnamed_addr #0 {
  %4 = tail call i64 @fwrite(ptr nonnull @.str.10, i64 5, i64 1, ptr %0)
  %5 = getelementptr inbounds nuw i8, ptr %1, i64 16
  %6 = load ptr, ptr %5, align 8
  %7 = tail call i32 (ptr, ptr, ...) @fprintf(ptr noundef %0, ptr noundef nonnull @.str.11, ptr noundef %6) #22
  %8 = getelementptr inbounds nuw i8, ptr %1, i64 32
  %9 = load double, ptr %8, align 8
  %10 = tail call i32 (ptr, ptr, ...) @fprintf(ptr noundef %0, ptr noundef nonnull @.str.12, double noundef %9) #22
  %11 = getelementptr inbounds nuw i8, ptr %1, i64 24
  %12 = load ptr, ptr %11, align 8
  %13 = getelementptr inbounds nuw i8, ptr %1, i64 40
  %14 = load ptr, ptr %13, align 8
  %15 = tail call i32 (ptr, ptr, ...) @fprintf(ptr noundef %0, ptr noundef nonnull @.str.13, ptr noundef %12, ptr noundef %14) #22
  %.not = icmp eq i32 %2, 0
  br i1 %.not, label %25, label %16

16:                                               ; preds = %3
  %17 = getelementptr inbounds nuw i8, ptr %1, i64 48
  %18 = load ptr, ptr %17, align 8
  %19 = icmp eq ptr %18, null
  br i1 %19, label %20, label %21

20:                                               ; preds = %16
  %puts = tail call i32 @puts(ptr nonnull dereferenceable(1) @str)
  br label %25

21:                                               ; preds = %16
  %22 = getelementptr inbounds nuw i8, ptr %1, i64 56
  %23 = load i32, ptr %22, align 8
  %24 = lshr i32 %23, 24
  tail call void @Kit_DsdPrintFromTruth(ptr noundef nonnull %18, i32 noundef %24) #22
  br label %25

25:                                               ; preds = %20, %21, %3
  %.ptr = getelementptr inbounds nuw i8, ptr %1, i64 64
  %26 = getelementptr inbounds nuw i8, ptr %1, i64 56
  %27 = load i32, ptr %26, align 8
  %.not21 = icmp ult i32 %27, 16777216
  br i1 %.not21, label %._crit_edge, label %.lr.ph

.lr.ph:                                           ; preds = %25, %.lr.ph
  %.019 = phi ptr [ %28, %.lr.ph ], [ %.ptr, %25 ]
  tail call void @Amap_LibWritePin(ptr noundef %0, ptr noundef nonnull %.019)
  %28 = getelementptr inbounds nuw i8, ptr %.019, i64 72
  %29 = load i32, ptr %26, align 8
  %30 = lshr i32 %29, 24
  %31 = zext nneg i32 %30 to i64
  %32 = getelementptr inbounds nuw %struct.Amap_Pin_t_, ptr %.ptr, i64 %31
  %33 = icmp ult ptr %28, %32
  br i1 %33, label %.lr.ph, label %._crit_edge, !llvm.loop !7

._crit_edge:                                      ; preds = %.lr.ph, %25
  ret void
}